; Function Attrs: nounwind uwtable
define ptr @Ioa_WriteAigerIntoMemory(ptr noundef readonly captures(none) %0, ptr noundef writeonly captures(none) %1) local_unnamed_addr #2 {
  %3 = tail call ptr @Ioa_WriteAigerIntoMemoryStr(ptr noundef %0)
  %4 = load ptr, ptr %0, align 8, !tbaa !56
  %.not = icmp eq ptr %4, null
  br i1 %.not, label %Vec_StrFree.exit, label %.lr.ph.i

.lr.ph.i:                                         ; preds = %2
  %5 = getelementptr inbounds nuw i8, ptr %3, i64 4
  %.phi.trans.insert.i.i = getelementptr inbounds nuw i8, ptr %3, i64 8
  %6 = load i32, ptr %5, align 4, !tbaa !8
  %7 = load i32, ptr %3, align 8, !tbaa !13
  %8 = icmp eq i32 %6, %7
  br i1 %8, label %9, label %.Vec_StrGrow.exit10_crit_edge.i.i

.Vec_StrGrow.exit10_crit_edge.i.i:                ; preds = %.lr.ph.i
  %.pre.i.i = load ptr, ptr %.phi.trans.insert.i.i, align 8, !tbaa !14
  br label %Vec_StrPush.exit.i

9:                                                ; preds = %.lr.ph.i
  %10 = icmp slt i32 %6, 16
  br i1 %10, label %11, label %18

11:                                               ; preds = %9
  %12 = load ptr, ptr %.phi.trans.insert.i.i, align 8, !tbaa !14
  %.not9.i.i.i = icmp eq ptr %12, null
  br i1 %.not9.i.i.i, label %15, label %13

13:                                               ; preds = %11
  %14 = tail call dereferenceable_or_null(16) ptr @realloc(ptr noundef nonnull %12, i64 noundef 16) #12
  br label %Vec_StrGrow.exit.i.i

15:                                               ; preds = %11
  %16 = tail call noalias dereferenceable_or_null(16) ptr @malloc(i64 noundef 16) #13
  br label %Vec_StrGrow.exit.i.i

Vec_StrGrow.exit.i.i:                             ; preds = %15, %13
  %17 = phi ptr [ %14, %13 ], [ %16, %15 ]
  store ptr %17, ptr %.phi.trans.insert.i.i, align 8, !tbaa !14
  store i32 16, ptr %3, align 8, !tbaa !13
  br label %Vec_StrPush.exit.i

18:                                               ; preds = %9
  %19 = shl nuw nsw i32 %6, 1
  %20 = load ptr, ptr %.phi.trans.insert.i.i, align 8, !tbaa !14
  %.not9.i9.i.i = icmp eq ptr %20, null
  %21 = zext nneg i32 %19 to i64
  br i1 %.not9.i9.i.i, label %24, label %22

22:                                               ; preds = %18
  %23 = tail call ptr @realloc(ptr noundef nonnull %20, i64 noundef %21) #12
  br label %26

24:                                               ; preds = %18
  %25 = tail call noalias ptr @malloc(i64 noundef %21) #13
  br label %26

26:                                               ; preds = %24, %22
  %27 = phi ptr [ %23, %22 ], [ %25, %24 ]
  store ptr %27, ptr %.phi.trans.insert.i.i, align 8, !tbaa !14
  store i32 %19, ptr %3, align 8, !tbaa !13
  br label %Vec_StrPush.exit.i

Vec_StrPush.exit.i:                               ; preds = %26, %Vec_StrGrow.exit.i.i, %.Vec_StrGrow.exit10_crit_edge.i.i
  %28 = phi ptr [ %.pre.i.i, %.Vec_StrGrow.exit10_crit_edge.i.i ], [ %27, %26 ], [ %17, %Vec_StrGrow.exit.i.i ]
  %29 = load i32, ptr %5, align 4, !tbaa !8
  %30 = add nsw i32 %29, 1
  store i32 %30, ptr %5, align 4, !tbaa !8
  %31 = sext i32 %29 to i64
  %32 = getelementptr inbounds i8, ptr %28, i64 %31
  store i8 110, ptr %32, align 1, !tbaa !3
  %33 = load ptr, ptr %0, align 8, !tbaa !56
  %34 = tail call i64 @strlen(ptr noundef nonnull readonly dereferenceable(1) %33) #15
  %35 = trunc i64 %34 to i32
  %36 = icmp sgt i32 %35, 0
  br i1 %36, label %.lr.ph.i11, label %Vec_StrPrintStr.exit23

.lr.ph.i11:                                       ; preds = %Vec_StrPush.exit.i
  %wide.trip.count.i13 = and i64 %34, 2147483647
  br label %37

37:                                               ; preds = %Vec_StrPush.exit.i17, %.lr.ph.i11
  %indvars.iv.i14 = phi i64 [ 0, %.lr.ph.i11 ], [ %indvars.iv.next.i18, %Vec_StrPush.exit.i17 ]
  %38 = getelementptr inbounds nuw i8, ptr %33, i64 %indvars.iv.i14
  %39 = load i8, ptr %38, align 1, !tbaa !3
  %40 = load i32, ptr %5, align 4, !tbaa !8
  %41 = load i32, ptr %3, align 8, !tbaa !13
  %42 = icmp eq i32 %40, %41
  br i1 %42, label %43, label %.Vec_StrGrow.exit10_crit_edge.i.i15

.Vec_StrGrow.exit10_crit_edge.i.i15:              ; preds = %37
  %.pre.i.i16 = load ptr, ptr %.phi.trans.insert.i.i, align 8, !tbaa !14
  br label %Vec_StrPush.exit.i17

43:                                               ; preds = %37
  %44 = icmp slt i32 %40, 16
  br i1 %44, label %45, label %52

45:                                               ; preds = %43
  %46 = load ptr, ptr %.phi.trans.insert.i.i, align 8, !tbaa !14
  %.not9.i.i.i21 = icmp eq ptr %46, null
  br i1 %.not9.i.i.i21, label %49, label %47

47:                                               ; preds = %45
  %48 = tail call dereferenceable_or_null(16) ptr @realloc(ptr noundef nonnull %46, i64 noundef 16) #12
  br label %Vec_StrGrow.exit.i.i22

49:                                               ; preds = %45
  %50 = tail call noalias dereferenceable_or_null(16) ptr @malloc(i64 noundef 16) #13
  br label %Vec_StrGrow.exit.i.i22

Vec_StrGrow.exit.i.i22:                           ; preds = %49, %47
  %51 = phi ptr [ %48, %47 ], [ %50, %49 ]
  store ptr %51, ptr %.phi.trans.insert.i.i, align 8, !tbaa !14
  store i32 16, ptr %3, align 8, !tbaa !13
  br label %Vec_StrPush.exit.i17

52:                                               ; preds = %43
  %53 = shl nuw nsw i32 %40, 1
  %54 = load ptr, ptr %.phi.trans.insert.i.i, align 8, !tbaa !14
  %.not9.i9.i.i20 = icmp eq ptr %54, null
  %55 = zext nneg i32 %53 to i64
  br i1 %.not9.i9.i.i20, label %58, label %56

56:                                               ; preds = %52
  %57 = tail call ptr @realloc(ptr noundef nonnull %54, i64 noundef %55) #12
  br label %60

58:                                               ; preds = %52
  %59 = tail call noalias ptr @malloc(i64 noundef %55) #13
  br label %60

60:                                               ; preds = %58, %56
  %61 = phi ptr [ %57, %56 ], [ %59, %58 ]
  store ptr %61, ptr %.phi.trans.insert.i.i, align 8, !tbaa !14
  store i32 %53, ptr %3, align 8, !tbaa !13
  br label %Vec_StrPush.exit.i17

Vec_StrPush.exit.i17:                             ; preds = %60, %Vec_StrGrow.exit.i.i22, %.Vec_StrGrow.exit10_crit_edge.i.i15
  %62 = phi ptr [ %.pre.i.i16, %.Vec_StrGrow.exit10_crit_edge.i.i15 ], [ %61, %60 ], [ %51, %Vec_StrGrow.exit.i.i22 ]
  %63 = load i32, ptr %5, align 4, !tbaa !8
  %64 = add nsw i32 %63, 1
  store i32 %64, ptr %5, align 4, !tbaa !8
  %65 = sext i32 %63 to i64
  %66 = getelementptr inbounds i8, ptr %62, i64 %65
  store i8 %39, ptr %66, align 1, !tbaa !3
  %indvars.iv.next.i18 = add nuw nsw i64 %indvars.iv.i14, 1
  %exitcond.not.i19 = icmp eq i64 %indvars.iv.next.i18, %wide.trip.count.i13
  br i1 %exitcond.not.i19, label %Vec_StrPrintStr.exit23, label %37, !llvm.loop !49

Vec_StrPrintStr.exit23:                           ; preds = %Vec_StrPush.exit.i17, %Vec_StrPush.exit.i
  %67 = load i32, ptr %5, align 4, !tbaa !8
  %68 = load i32, ptr %3, align 8, !tbaa !13
  %69 = icmp eq i32 %67, %68
  br i1 %69, label %70, label %.Vec_StrGrow.exit10_crit_edge.i

.Vec_StrGrow.exit10_crit_edge.i:                  ; preds = %Vec_StrPrintStr.exit23
  %.pre.i = load ptr, ptr %.phi.trans.insert.i.i, align 8, !tbaa !14
  br label %Vec_StrPush.exit

70:                                               ; preds = %Vec_StrPrintStr.exit23
  %71 = icmp slt i32 %67, 16
  br i1 %71, label %72, label %79

72:                                               ; preds = %70
  %73 = load ptr, ptr %.phi.trans.insert.i.i, align 8, !tbaa !14
  %.not9.i.i = icmp eq ptr %73, null
  br i1 %.not9.i.i, label %76, label %74

74:                                               ; preds = %72
  %75 = tail call dereferenceable_or_null(16) ptr @realloc(ptr noundef nonnull %73, i64 noundef 16) #12
  br label %Vec_StrGrow.exit.i

76:                                               ; preds = %72
  %77 = tail call noalias dereferenceable_or_null(16) ptr @malloc(i64 noundef 16) #13
  br label %Vec_StrGrow.exit.i

Vec_StrGrow.exit.i:                               ; preds = %76, %74
  %78 = phi ptr [ %75, %74 ], [ %77, %76 ]
  store ptr %78, ptr %.phi.trans.insert.i.i, align 8, !tbaa !14
  store i32 16, ptr %3, align 8, !tbaa !13
  br label %Vec_StrPush.exit

79:                                               ; preds = %70
  %80 = shl nuw nsw i32 %67, 1
  %81 = load ptr, ptr %.phi.trans.insert.i.i, align 8, !tbaa !14
  %.not9.i9.i = icmp eq ptr %81, null
  %82 = zext nneg i32 %80 to i64
  br i1 %.not9.i9.i, label %85, label %83

83:                                               ; preds = %79
  %84 = tail call ptr @realloc(ptr noundef nonnull %81, i64 noundef %82) #12
  br label %87

85:                                               ; preds = %79
  %86 = tail call noalias ptr @malloc(i64 noundef %82) #13
  br label %87

87:                                               ; preds = %85, %83
  %88 = phi ptr [ %84, %83 ], [ %86, %85 ]
  store ptr %88, ptr %.phi.trans.insert.i.i, align 8, !tbaa !14
  store i32 %80, ptr %3, align 8, !tbaa !13
  br label %Vec_StrPush.exit

Vec_StrPush.exit:                                 ; preds = %.Vec_StrGrow.exit10_crit_edge.i, %Vec_StrGrow.exit.i, %87
  %89 = phi ptr [ %.pre.i, %.Vec_StrGrow.exit10_crit_edge.i ], [ %88, %87 ], [ %78, %Vec_StrGrow.exit.i ]
  %90 = load i32, ptr %5, align 4, !tbaa !8
  %91 = add nsw i32 %90, 1
  store i32 %91, ptr %5, align 4, !tbaa !8
  %92 = sext i32 %90 to i64
  %93 = getelementptr inbounds i8, ptr %89, i64 %92
  store i8 0, ptr %93, align 1, !tbaa !3
  br label %Vec_StrFree.exit

Vec_StrFree.exit:                                 ; preds = %2, %Vec_StrPush.exit
  %94 = getelementptr i8, ptr %3, i64 4
  %.val = load i32, ptr %94, align 4, !tbaa !8
  store i32 %.val, ptr %1, align 4, !tbaa !16
  %95 = getelementptr inbounds nuw i8, ptr %3, i64 8
  %96 = load ptr, ptr %95, align 8, !tbaa !14
  tail call void @free(ptr noundef nonnull %3) #14
  ret ptr %96
}